; Function Attrs: nounwind uwtable
define internal void @PredictorSub2_SSE2(ptr noundef %0, ptr noundef %1, i32 noundef %2, ptr noalias noundef %3) #1 {
  %.not25 = icmp slt i32 %2, 4
  br i1 %.not25, label %._crit_edge, label %.lr.ph.preheader

.lr.ph.preheader:                                 ; preds = %4
  %5 = zext nneg i32 %2 to i64
  br label %.lr.ph

.lr.ph:                                           ; preds = %.lr.ph.preheader, %.lr.ph
  %indvars.iv27 = phi i64 [ 0, %.lr.ph.preheader ], [ %indvars.iv.next28, %.lr.ph ]
  %indvars.iv = phi i64 [ 4, %.lr.ph.preheader ], [ %indvars.iv.next, %.lr.ph ]
  %6 = getelementptr inbounds nuw i32, ptr %0, i64 %indvars.iv27
  %7 = load <16 x i8>, ptr %6, align 1, !tbaa !7
  %8 = getelementptr inbounds nuw i32, ptr %1, i64 %indvars.iv27
  %9 = load <16 x i8>, ptr %8, align 1, !tbaa !7
  %10 = sub <16 x i8> %7, %9
  %11 = getelementptr inbounds nuw i32, ptr %3, i64 %indvars.iv27
  store <16 x i8> %10, ptr %11, align 1, !tbaa !7
  %indvars.iv.next = add nuw nsw i64 %indvars.iv, 4
  %.not = icmp samesign ugt i64 %indvars.iv.next, %5
  %indvars.iv.next28 = add nuw nsw i64 %indvars.iv27, 4
  br i1 %.not, label %._crit_edge.loopexit, label %.lr.ph, !llvm.loop !39

._crit_edge.loopexit:                             ; preds = %.lr.ph
  %12 = trunc nuw nsw i64 %indvars.iv to i32
  br label %._crit_edge

._crit_edge:                                      ; preds = %._crit_edge.loopexit, %4
  %.0.lcssa = phi i32 [ 0, %4 ], [ %12, %._crit_edge.loopexit ]
  %.not24 = icmp eq i32 %.0.lcssa, %2
  br i1 %.not24, label %22, label %13

13:                                               ; preds = %._crit_edge
  %14 = load ptr, ptr getelementptr inbounds nuw (i8, ptr @VP8LPredictorsSub_C, i64 16), align 16, !tbaa !3
  %15 = zext nneg i32 %.0.lcssa to i64
  %16 = getelementptr inbounds nuw i32, ptr %0, i64 %15
  %17 = icmp eq ptr %1, null
  %18 = getelementptr inbounds nuw i32, ptr %1, i64 %15
  %19 = select i1 %17, ptr null, ptr %18
  %20 = sub nsw i32 %2, %.0.lcssa
  %21 = getelementptr inbounds nuw i32, ptr %3, i64 %15
  tail call void %14(ptr noundef %16, ptr noundef %19, i32 noundef %20, ptr noundef %21) #8
  br label %22

22:                                               ; preds = %13, %._crit_edge
  ret void
}